target datalayout = "e-m:e-p270:32:32-p271:32:32-p272:64:64-i64:64-i128:128-f80:128-n8:16:32:64-S128"
target triple = "x86_64-pc-linux-gnu"

%class.anon.2 = type { i8 }
%struct.Vec2 = type { float, float }

@.str.56 = private unnamed_addr constant [5 x i8] c"vec2\00", align 1

; Function Attrs: mustprogress uwtable
define dso_local noundef ptr @_Z13lua_vec2_pushP9lua_State(ptr noundef %0) #4 {
  %2 = alloca ptr, align 8
  %3 = alloca ptr, align 8
  store ptr %0, ptr %2, align 8
  %4 = load ptr, ptr %2, align 8
  %5 = call noundef ptr @_Z21lua_newuserdatataggedP9lua_Statemi(ptr noundef %4, i64 noundef 8, i32 noundef 12)
  store ptr %5, ptr %3, align 8
  %6 = load ptr, ptr %2, align 8
  call void @_Z24lua_getuserdatametatableP9lua_Statei(ptr noundef %6, i32 noundef 12)
  %7 = load ptr, ptr %2, align 8
  %8 = call noundef i32 @_Z16lua_setmetatableP9lua_Statei(ptr noundef %7, i32 noundef -2)
  %9 = load ptr, ptr %3, align 8
  ret ptr %9
}

; Function Attrs: mustprogress uwtable
define dso_local noundef ptr @_Z12lua_vec2_getP9lua_Statei(ptr noundef %0, i32 noundef %1) #4 {
  %3 = alloca ptr, align 8
  %4 = alloca i32, align 4
  %5 = alloca ptr, align 8
  store ptr %0, ptr %3, align 8
  store i32 %1, ptr %4, align 4
  %6 = load ptr, ptr %3, align 8
  %7 = load i32, ptr %4, align 4
  %8 = call noundef ptr @_Z20lua_touserdatataggedP9lua_Stateii(ptr noundef %6, i32 noundef %7, i32 noundef 12)
  store ptr %8, ptr %5, align 8
  %9 = load ptr, ptr %5, align 8
  %10 = icmp ne ptr %9, null
  br i1 %10, label %11, label %13

11:                                               ; preds = %2
  %12 = load ptr, ptr %5, align 8
  ret ptr %12

13:                                               ; preds = %2
  %14 = load ptr, ptr %3, align 8
  %15 = load i32, ptr %4, align 4
  call void @_Z15luaL_typeerrorLP9lua_StateiPKc(ptr noundef %14, i32 noundef %15, ptr noundef @.str.56) #19
  unreachable
}

; Function Attrs: mustprogress uwtable
define internal noundef i32 @"_ZZ20setupUserdataHelpersP9lua_StateENK3$_2clES0_"(ptr noundef nonnull align 1 dereferenceable(1) %0, ptr noundef %1) #4 align 2 {
  %3 = alloca ptr, align 8
  %4 = alloca ptr, align 8
  %5 = alloca ptr, align 8
  %6 = alloca ptr, align 8
  %7 = alloca ptr, align 8
  store ptr %0, ptr %3, align 8
  store ptr %1, ptr %4, align 8
  %8 = load ptr, ptr %4, align 8
  %9 = call noundef ptr @_Z12lua_vec2_getP9lua_Statei(ptr noundef %8, i32 noundef 1)
  store ptr %9, ptr %5, align 8
  %10 = load ptr, ptr %4, align 8
  %11 = call noundef ptr @_Z12lua_vec2_getP9lua_Statei(ptr noundef %10, i32 noundef 2)
  store ptr %11, ptr %6, align 8
  %12 = load ptr, ptr %4, align 8
  %13 = call noundef ptr @_Z13lua_vec2_pushP9lua_State(ptr noundef %12)
  store ptr %13, ptr %7, align 8
  %14 = load ptr, ptr %5, align 8
  %15 = getelementptr inbounds %struct.Vec2, ptr %14, i32 0, i32 0
  %16 = load float, ptr %15, align 4
  %17 = load ptr, ptr %6, align 8
  %18 = getelementptr inbounds %struct.Vec2, ptr %17, i32 0, i32 0
  %19 = load float, ptr %18, align 4
  %20 = fmul float %16, %19
  %21 = load ptr, ptr %7, align 8
  %22 = getelementptr inbounds %struct.Vec2, ptr %21, i32 0, i32 0
  store float %20, ptr %22, align 4
  %23 = load ptr, ptr %5, align 8
  %24 = getelementptr inbounds %struct.Vec2, ptr %23, i32 0, i32 1
  %25 = load float, ptr %24, align 4
  %26 = load ptr, ptr %6, align 8
  %27 = getelementptr inbounds %struct.Vec2, ptr %26, i32 0, i32 1
  %28 = load float, ptr %27, align 4
  %29 = fmul float %25, %28
  %30 = load ptr, ptr %7, align 8
  %31 = getelementptr inbounds %struct.Vec2, ptr %30, i32 0, i32 1
  store float %29, ptr %31, align 4
  ret i32 1
}

; Function Attrs: mustprogress uwtable
define internal noundef i32 @"_ZZ20setupUserdataHelpersP9lua_StateEN3$_28__invokeES0_"(ptr noundef %0) #4 align 2 {
  %2 = alloca ptr, align 8
  %3 = alloca %class.anon.2, align 1
  store ptr %0, ptr %2, align 8
  %4 = load ptr, ptr %2, align 8
  %5 = call noundef i32 @"_ZZ20setupUserdataHelpersP9lua_StateENK3$_2clES0_"(ptr noundef nonnull align 1 dereferenceable(1) %3, ptr noundef %4)
  ret i32 %5
}